target datalayout = "e-m:e-p270:32:32-p271:32:32-p272:64:64-i64:64-i128:128-f80:128-n8:16:32:64-S128"
target triple = "x86_64-pc-linux-gnu"

%struct.AVRational = type { i32, i32 }
%struct.AVCodecContext = type { ptr, i32, i32, ptr, i32, i32, ptr, ptr, ptr, i64, i32, i32, ptr, i32, %struct.AVRational, %struct.AVRational, %struct.AVRational, i32, i32, i32, i32, i32, %struct.AVRational, i32, i32, i32, i32, i32, i32, i32, i32, i32, i32, i32, ptr, ptr, i32, float, float, float, float, float, float, float, float, float, i32, i32, i32, i32, i32, i32, i32, i32, i32, i32, i32, i32, ptr, ptr, ptr, i32, i32, i32, i32, i32, i32, i32, i32, i32, i32, %struct.AVChannelLayout, i32, i32, i32, i32, i32, i32, i32, i32, ptr, i32, i32, i32, float, float, i32, i32, i32, i32, i32, ptr, i64, i64, float, float, i32, i32, ptr, ptr, i32, i32, i32, i32, i32, ptr, ptr, ptr, ptr, i32, i32, [8 x i64], i32, i32, i32, i32, i32, i32, i32, ptr, ptr, i32, i32, i32, i32, i32, i32, i32, i32, i32, i32, ptr, ptr, i32, i32, ptr, ptr, ptr, ptr, i32, i32, i64, i32, i32, i64, ptr, i64, ptr, i32, ptr, i32 }
%struct.AVChannelLayout = type { i32, i32, %union.anon, ptr }
%union.anon = type { i64 }
%struct.AVCodecInternal = type { i32, i32, i32, ptr, ptr, ptr, ptr, ptr, ptr, ptr, i32, ptr, ptr, ptr, i32, i32, ptr, i32, ptr, ptr, i32, i32 }
%struct.FFCodec = type { %struct.AVCodec, i32, i32, ptr, ptr, ptr, ptr, %union.anon.0, ptr, ptr, ptr, ptr, ptr, ptr }
%struct.AVCodec = type { ptr, ptr, i32, i32, i32, i8, ptr, ptr, ptr, ptr, ptr, ptr, ptr, ptr }
%union.anon.0 = type { ptr }
%struct.AVBufferRef = type { ptr, ptr, i64 }
%struct.AVCodecHWConfigInternal = type { %struct.AVCodecHWConfig, ptr }
%struct.AVCodecHWConfig = type { i32, i32, i32 }
%struct.AVHWAccel = type { ptr, i32, i32, i32, i32 }
%struct.AVHWFramesContext = type { ptr, ptr, ptr, ptr, ptr, ptr, ptr, i32, i32, i32, i32, i32 }
%struct.FFHWAccel = type { %struct.AVHWAccel, ptr, ptr, ptr, ptr, ptr, i32, i32, i32, ptr, ptr, ptr, ptr, ptr, ptr }

; Function Attrs: alwaysinline nounwind uwtable
define internal ptr @ffcodec(ptr noundef %0) #3 {
  %2 = alloca ptr, align 8
  store ptr %0, ptr %2, align 8, !tbaa !71
  %3 = load ptr, ptr %2, align 8, !tbaa !71
  ret ptr %3
}

; Function Attrs: nounwind uwtable
define i32 @avcodec_get_hw_frames_parameters(ptr noundef %0, ptr noundef %1, i32 noundef %2, ptr noundef %3) #0 {
  %5 = alloca i32, align 4
  %6 = alloca ptr, align 8
  %7 = alloca ptr, align 8
  %8 = alloca i32, align 4
  %9 = alloca ptr, align 8
  %10 = alloca ptr, align 8
  %11 = alloca ptr, align 8
  %12 = alloca ptr, align 8
  %13 = alloca i32, align 4
  %14 = alloca i32, align 4
  %15 = alloca i8, align 1
  %16 = alloca i32, align 4
  %17 = alloca ptr, align 8
  store ptr %0, ptr %6, align 8, !tbaa !4
  store ptr %1, ptr %7, align 8, !tbaa !54
  store i32 %2, ptr %8, align 4, !tbaa !41
  store ptr %3, ptr %9, align 8, !tbaa !183
  call void @llvm.lifetime.start.p0(i64 8, ptr %10) #11
  store ptr null, ptr %10, align 8, !tbaa !54
  call void @llvm.lifetime.start.p0(i64 8, ptr %11) #11
  call void @llvm.lifetime.start.p0(i64 8, ptr %12) #11
  call void @llvm.lifetime.start.p0(i64 4, ptr %13) #11
  call void @llvm.lifetime.start.p0(i64 4, ptr %14) #11
  call void @llvm.lifetime.start.p0(i64 1, ptr %15) #11
  store i8 0, ptr %15, align 1, !tbaa !184
  store i32 0, ptr %13, align 4, !tbaa !41
  br label %18

18:                                               ; preds = %41, %4
  %19 = load ptr, ptr %6, align 8, !tbaa !4
  %20 = getelementptr inbounds nuw %struct.AVCodecContext, ptr %19, i32 0, i32 3
  %21 = load ptr, ptr %20, align 8, !tbaa !50
  %22 = call ptr @ffcodec(ptr noundef %21)
  %23 = getelementptr inbounds nuw %struct.FFCodec, ptr %22, i32 0, i32 11
  %24 = load ptr, ptr %23, align 8, !tbaa !148
  %25 = load i32, ptr %13, align 4, !tbaa !41
  %26 = sext i32 %25 to i64
  %27 = getelementptr inbounds ptr, ptr %24, i64 %26
  %28 = load ptr, ptr %27, align 8, !tbaa !157
  store ptr %28, ptr %11, align 8, !tbaa !157
  %29 = load ptr, ptr %11, align 8, !tbaa !157
  %30 = icmp ne ptr %29, null
  br i1 %30, label %32, label %31

31:                                               ; preds = %18
  store i32 -2, ptr %5, align 4
  store i32 1, ptr %16, align 4
  br label %146

32:                                               ; preds = %18
  %33 = load ptr, ptr %11, align 8, !tbaa !157
  %34 = getelementptr inbounds nuw %struct.AVCodecHWConfigInternal, ptr %33, i32 0, i32 0
  %35 = getelementptr inbounds nuw %struct.AVCodecHWConfig, ptr %34, i32 0, i32 0
  %36 = load i32, ptr %35, align 8, !tbaa !186
  %37 = load i32, ptr %8, align 4, !tbaa !41
  %38 = icmp eq i32 %36, %37
  br i1 %38, label %39, label %40

39:                                               ; preds = %32
  br label %44

40:                                               ; preds = %32
  br label %41

41:                                               ; preds = %40
  %42 = load i32, ptr %13, align 4, !tbaa !41
  %43 = add nsw i32 %42, 1
  store i32 %43, ptr %13, align 4, !tbaa !41
  br label %18

44:                                               ; preds = %39
  %45 = load ptr, ptr %11, align 8, !tbaa !157
  %46 = getelementptr inbounds nuw %struct.AVCodecHWConfigInternal, ptr %45, i32 0, i32 1
  %47 = load ptr, ptr %46, align 8, !tbaa !189
  store ptr %47, ptr %12, align 8, !tbaa !190
  %48 = load ptr, ptr %12, align 8, !tbaa !190
  %49 = icmp ne ptr %48, null
  br i1 %49, label %50, label %55

50:                                               ; preds = %44
  %51 = load ptr, ptr %12, align 8, !tbaa !190
  %52 = getelementptr inbounds nuw %struct.FFHWAccel, ptr %51, i32 0, i32 11
  %53 = load ptr, ptr %52, align 8, !tbaa !191
  %54 = icmp ne ptr %53, null
  br i1 %54, label %56, label %55

55:                                               ; preds = %50, %44
  store i32 -2, ptr %5, align 4
  store i32 1, ptr %16, align 4
  br label %146

56:                                               ; preds = %50
  %57 = load ptr, ptr %7, align 8, !tbaa !54
  %58 = call ptr @av_hwframe_ctx_alloc(ptr noundef %57)
  store ptr %58, ptr %10, align 8, !tbaa !54
  %59 = load ptr, ptr %10, align 8, !tbaa !54
  %60 = icmp ne ptr %59, null
  br i1 %60, label %62, label %61

61:                                               ; preds = %56
  store i32 -12, ptr %5, align 4
  store i32 1, ptr %16, align 4
  br label %146

62:                                               ; preds = %56
  %63 = load ptr, ptr %6, align 8, !tbaa !4
  %64 = getelementptr inbounds nuw %struct.AVCodecContext, ptr %63, i32 0, i32 7
  %65 = load ptr, ptr %64, align 8, !tbaa !11
  %66 = getelementptr inbounds nuw %struct.AVCodecInternal, ptr %65, i32 0, i32 16
  %67 = load ptr, ptr %66, align 8, !tbaa !193
  %68 = icmp ne ptr %67, null
  br i1 %68, label %87, label %69

69:                                               ; preds = %62
  %70 = load ptr, ptr %12, align 8, !tbaa !190
  %71 = getelementptr inbounds nuw %struct.FFHWAccel, ptr %70, i32 0, i32 7
  %72 = load i32, ptr %71, align 4, !tbaa !194
  %73 = sext i32 %72 to i64
  %74 = call noalias ptr @av_mallocz(i64 noundef %73)
  %75 = load ptr, ptr %6, align 8, !tbaa !4
  %76 = getelementptr inbounds nuw %struct.AVCodecContext, ptr %75, i32 0, i32 7
  %77 = load ptr, ptr %76, align 8, !tbaa !11
  %78 = getelementptr inbounds nuw %struct.AVCodecInternal, ptr %77, i32 0, i32 16
  store ptr %74, ptr %78, align 8, !tbaa !193
  %79 = load ptr, ptr %6, align 8, !tbaa !4
  %80 = getelementptr inbounds nuw %struct.AVCodecContext, ptr %79, i32 0, i32 7
  %81 = load ptr, ptr %80, align 8, !tbaa !11
  %82 = getelementptr inbounds nuw %struct.AVCodecInternal, ptr %81, i32 0, i32 16
  %83 = load ptr, ptr %82, align 8, !tbaa !193
  %84 = icmp ne ptr %83, null
  br i1 %84, label %86, label %85

85:                                               ; preds = %69
  call void @av_buffer_unref(ptr noundef %10)
  store i32 -12, ptr %5, align 4
  store i32 1, ptr %16, align 4
  br label %146

86:                                               ; preds = %69
  store i8 1, ptr %15, align 1, !tbaa !184
  br label %87

87:                                               ; preds = %86, %62
  %88 = load ptr, ptr %12, align 8, !tbaa !190
  %89 = getelementptr inbounds nuw %struct.FFHWAccel, ptr %88, i32 0, i32 11
  %90 = load ptr, ptr %89, align 8, !tbaa !191
  %91 = load ptr, ptr %6, align 8, !tbaa !4
  %92 = load ptr, ptr %10, align 8, !tbaa !54
  %93 = call i32 %90(ptr noundef %91, ptr noundef %92)
  store i32 %93, ptr %14, align 4, !tbaa !41
  %94 = load i32, ptr %14, align 4, !tbaa !41
  %95 = icmp sge i32 %94, 0
  br i1 %95, label %96, label %135

96:                                               ; preds = %87
  call void @llvm.lifetime.start.p0(i64 8, ptr %17) #11
  %97 = load ptr, ptr %10, align 8, !tbaa !54
  %98 = getelementptr inbounds nuw %struct.AVBufferRef, ptr %97, i32 0, i32 1
  %99 = load ptr, ptr %98, align 8, !tbaa !152
  store ptr %99, ptr %17, align 8, !tbaa !178
  %100 = load ptr, ptr %17, align 8, !tbaa !178
  %101 = getelementptr inbounds nuw %struct.AVHWFramesContext, ptr %100, i32 0, i32 7
  %102 = load i32, ptr %101, align 8, !tbaa !180
  %103 = icmp ne i32 %102, 0
  br i1 %103, label %104, label %132

104:                                              ; preds = %96
  %105 = load ptr, ptr %6, align 8, !tbaa !4
  %106 = getelementptr inbounds nuw %struct.AVCodecContext, ptr %105, i32 0, i32 110
  %107 = load i32, ptr %106, align 4, !tbaa !195
  %108 = icmp sgt i32 %107, 0
  br i1 %108, label %109, label %117

109:                                              ; preds = %104
  %110 = load ptr, ptr %6, align 8, !tbaa !4
  %111 = getelementptr inbounds nuw %struct.AVCodecContext, ptr %110, i32 0, i32 110
  %112 = load i32, ptr %111, align 4, !tbaa !195
  %113 = load ptr, ptr %17, align 8, !tbaa !178
  %114 = getelementptr inbounds nuw %struct.AVHWFramesContext, ptr %113, i32 0, i32 7
  %115 = load i32, ptr %114, align 8, !tbaa !180
  %116 = add nsw i32 %115, %112
  store i32 %116, ptr %114, align 8, !tbaa !180
  br label %117

117:                                              ; preds = %109, %104
  %118 = load ptr, ptr %6, align 8, !tbaa !4
  %119 = getelementptr inbounds nuw %struct.AVCodecContext, ptr %118, i32 0, i32 118
  %120 = load i32, ptr %119, align 8, !tbaa !97
  %121 = and i32 %120, 1
  %122 = icmp ne i32 %121, 0
  br i1 %122, label %123, label %131

123:                                              ; preds = %117
  %124 = load ptr, ptr %6, align 8, !tbaa !4
  %125 = getelementptr inbounds nuw %struct.AVCodecContext, ptr %124, i32 0, i32 116
  %126 = load i32, ptr %125, align 8, !tbaa !196
  %127 = load ptr, ptr %17, align 8, !tbaa !178
  %128 = getelementptr inbounds nuw %struct.AVHWFramesContext, ptr %127, i32 0, i32 7
  %129 = load i32, ptr %128, align 8, !tbaa !180
  %130 = add nsw i32 %129, %126
  store i32 %130, ptr %128, align 8, !tbaa !180
  br label %131

131:                                              ; preds = %123, %117
  br label %132

132:                                              ; preds = %131, %96
  %133 = load ptr, ptr %10, align 8, !tbaa !54
  %134 = load ptr, ptr %9, align 8, !tbaa !183
  store ptr %133, ptr %134, align 8, !tbaa !54
  call void @llvm.lifetime.end.p0(i64 8, ptr %17) #11
  br label %144

135:                                              ; preds = %87
  %136 = load i8, ptr %15, align 1, !tbaa !184, !range !197, !noundef !198
  %137 = trunc i8 %136 to i1
  br i1 %137, label %138, label %143

138:                                              ; preds = %135
  %139 = load ptr, ptr %6, align 8, !tbaa !4
  %140 = getelementptr inbounds nuw %struct.AVCodecContext, ptr %139, i32 0, i32 7
  %141 = load ptr, ptr %140, align 8, !tbaa !11
  %142 = getelementptr inbounds nuw %struct.AVCodecInternal, ptr %141, i32 0, i32 16
  call void @av_freep(ptr noundef %142)
  br label %143

143:                                              ; preds = %138, %135
  call void @av_buffer_unref(ptr noundef %10)
  br label %144

144:                                              ; preds = %143, %132
  %145 = load i32, ptr %14, align 4, !tbaa !41
  store i32 %145, ptr %5, align 4
  store i32 1, ptr %16, align 4
  br label %146

146:                                              ; preds = %144, %85, %61, %55, %31
  call void @llvm.lifetime.end.p0(i64 1, ptr %15) #11
  call void @llvm.lifetime.end.p0(i64 4, ptr %14) #11
  call void @llvm.lifetime.end.p0(i64 4, ptr %13) #11
  call void @llvm.lifetime.end.p0(i64 8, ptr %12) #11
  call void @llvm.lifetime.end.p0(i64 8, ptr %11) #11
  call void @llvm.lifetime.end.p0(i64 8, ptr %10) #11
  %147 = load i32, ptr %5, align 4
  ret i32 %147
}