; Function Attrs: nounwind uwtable
define i32 @avcodec_get_hw_frames_parameters(ptr noundef %0, ptr noundef %1, i32 noundef %2, ptr noundef writeonly captures(none) %3) local_unnamed_addr #0 {
  %5 = alloca ptr, align 8
  call void @llvm.lifetime.start.p0(i64 8, ptr nonnull %5) #10
  %6 = getelementptr inbounds nuw i8, ptr %0, i64 16
  %7 = load ptr, ptr %6, align 8, !tbaa !36
  %8 = getelementptr inbounds nuw i8, ptr %7, i64 168
  %9 = load ptr, ptr %8, align 8, !tbaa !134
  %10 = load ptr, ptr %9, align 8, !tbaa !138
  %.not42 = icmp eq ptr %10, null
  br i1 %.not42, label %.loopexit, label %.lr.ph

11:                                               ; preds = %.lr.ph
  %indvars.iv.next = add nuw nsw i64 %indvars.iv, 1
  %12 = getelementptr inbounds nuw ptr, ptr %9, i64 %indvars.iv.next
  %13 = load ptr, ptr %12, align 8, !tbaa !138
  %.not = icmp eq ptr %13, null
  br i1 %.not, label %.loopexit, label %.lr.ph

.lr.ph:                                           ; preds = %4, %11
  %indvars.iv = phi i64 [ %indvars.iv.next, %11 ], [ 0, %4 ]
  %14 = phi ptr [ %13, %11 ], [ %10, %4 ]
  %15 = load i32, ptr %14, align 8, !tbaa !162
  %16 = icmp eq i32 %15, %2
  br i1 %16, label %17, label %11

17:                                               ; preds = %.lr.ph
  %18 = getelementptr inbounds nuw i8, ptr %14, i64 16
  %19 = load ptr, ptr %18, align 8, !tbaa !165
  %.not34 = icmp eq ptr %19, null
  br i1 %.not34, label %.loopexit, label %20

20:                                               ; preds = %17
  %21 = getelementptr inbounds nuw i8, ptr %19, i64 96
  %22 = load ptr, ptr %21, align 8, !tbaa !166
  %.not35 = icmp eq ptr %22, null
  br i1 %.not35, label %.loopexit, label %23

23:                                               ; preds = %20
  %24 = tail call ptr @av_hwframe_ctx_alloc(ptr noundef %1) #10
  store ptr %24, ptr %5, align 8, !tbaa !56
  %.not36 = icmp eq ptr %24, null
  br i1 %.not36, label %.loopexit, label %25

25:                                               ; preds = %23
  %26 = getelementptr inbounds nuw i8, ptr %0, i64 40
  %27 = load ptr, ptr %26, align 8, !tbaa !4
  %28 = getelementptr inbounds nuw i8, ptr %27, i64 112
  %29 = load ptr, ptr %28, align 8, !tbaa !168
  %.not37 = icmp eq ptr %29, null
  br i1 %.not37, label %30, label %.thread

30:                                               ; preds = %25
  %31 = getelementptr inbounds nuw i8, ptr %19, i64 68
  %32 = load i32, ptr %31, align 4, !tbaa !169
  %33 = sext i32 %32 to i64
  %34 = tail call noalias ptr @av_mallocz(i64 noundef %33) #10
  %35 = load ptr, ptr %26, align 8, !tbaa !4
  %36 = getelementptr inbounds nuw i8, ptr %35, i64 112
  store ptr %34, ptr %36, align 8, !tbaa !168
  %.not38 = icmp eq ptr %34, null
  br i1 %.not38, label %37, label %38

37:                                               ; preds = %30
  call void @av_buffer_unref(ptr noundef nonnull %5) #10
  br label %.loopexit

38:                                               ; preds = %30
  %39 = load ptr, ptr %21, align 8, !tbaa !166
  %40 = tail call i32 %39(ptr noundef nonnull %0, ptr noundef nonnull %24) #10
  %41 = icmp sgt i32 %40, -1
  br i1 %41, label %45, label %67

.thread:                                          ; preds = %25
  %42 = load ptr, ptr %21, align 8, !tbaa !166
  %43 = tail call i32 %42(ptr noundef nonnull %0, ptr noundef nonnull %24) #10
  %44 = icmp sgt i32 %43, -1
  br i1 %44, label %45, label %.thread46

45:                                               ; preds = %.thread, %38
  %46 = phi i32 [ %43, %.thread ], [ %40, %38 ]
  %47 = getelementptr inbounds nuw i8, ptr %24, i64 8
  %48 = load ptr, ptr %47, align 8, !tbaa !140
  %49 = getelementptr inbounds nuw i8, ptr %48, i64 56
  %50 = load i32, ptr %49, align 8, !tbaa !158
  %.not39 = icmp eq i32 %50, 0
  br i1 %.not39, label %66, label %51

51:                                               ; preds = %45
  %52 = getelementptr inbounds nuw i8, ptr %0, i64 572
  %53 = load i32, ptr %52, align 4, !tbaa !170
  %54 = icmp sgt i32 %53, 0
  br i1 %54, label %55, label %57

55:                                               ; preds = %51
  %56 = add nsw i32 %53, %50
  store i32 %56, ptr %49, align 8, !tbaa !158
  br label %57

57:                                               ; preds = %55, %51
  %58 = phi i32 [ %56, %55 ], [ %50, %51 ]
  %59 = getelementptr inbounds nuw i8, ptr %0, i64 664
  %60 = load i32, ptr %59, align 8, !tbaa !73
  %61 = and i32 %60, 1
  %.not40 = icmp eq i32 %61, 0
  br i1 %.not40, label %66, label %62

62:                                               ; preds = %57
  %63 = getelementptr inbounds nuw i8, ptr %0, i64 656
  %64 = load i32, ptr %63, align 8, !tbaa !74
  %65 = add nsw i32 %58, %64
  store i32 %65, ptr %49, align 8, !tbaa !158
  br label %66

66:                                               ; preds = %57, %62, %45
  store ptr %24, ptr %3, align 8, !tbaa !56
  br label %.loopexit

67:                                               ; preds = %38
  %68 = load ptr, ptr %26, align 8, !tbaa !4
  %69 = getelementptr inbounds nuw i8, ptr %68, i64 112
  tail call void @av_freep(ptr noundef nonnull %69) #10
  br label %.thread46

.thread46:                                        ; preds = %.thread, %67
  %70 = phi i32 [ %40, %67 ], [ %43, %.thread ]
  call void @av_buffer_unref(ptr noundef nonnull %5) #10
  br label %.loopexit

.loopexit:                                        ; preds = %11, %4, %66, %.thread46, %23, %17, %20, %37
  %.0 = phi i32 [ -12, %37 ], [ -2, %20 ], [ -2, %17 ], [ -12, %23 ], [ %70, %.thread46 ], [ %46, %66 ], [ -2, %4 ], [ -2, %11 ]
  call void @llvm.lifetime.end.p0(i64 8, ptr nonnull %5) #10
  ret i32 %.0
}